; Function Attrs: nounwind uwtable
define internal range(i32 1, 3) i32 @luaB_next(ptr noundef %0) #0 {
  tail call void @luaL_checktype(ptr noundef %0, i32 noundef 1, i32 noundef 5) #8
  tail call void @lua_settop(ptr noundef %0, i32 noundef 2) #8
  %2 = tail call i32 @lua_next(ptr noundef %0, i32 noundef 1) #8
  %.not = icmp eq i32 %2, 0
  br i1 %.not, label %3, label %4

3:                                                ; preds = %1
  tail call void @lua_pushnil(ptr noundef %0) #8
  br label %4

4:                                                ; preds = %1, %3
  %.0 = phi i32 [ 1, %3 ], [ 2, %1 ]
  ret i32 %.0
}